target datalayout = "e-m:e-p270:32:32-p271:32:32-p272:64:64-i64:64-i128:128-f80:128-n8:16:32:64-S128"
target triple = "x86_64-pc-linux-gnu"

%struct.UCharIterator = type { ptr, i32, i32, i32, i32, i32, ptr, ptr, ptr, ptr, ptr, ptr, ptr, ptr, ptr, ptr }

; Function Attrs: mustprogress nounwind uwtable
define internal noundef i32 @_ZL20utf8IteratorGetStatePK13UCharIterator(ptr noundef %0) #3 {
  %2 = alloca ptr, align 8
  %3 = alloca i32, align 4
  store ptr %0, ptr %2, align 8, !tbaa !3
  call void @llvm.lifetime.start.p0(i64 4, ptr %3) #8
  %4 = load ptr, ptr %2, align 8, !tbaa !3
  %5 = getelementptr inbounds nuw %struct.UCharIterator, ptr %4, i32 0, i32 2
  %6 = load i32, ptr %5, align 4, !tbaa !39
  %7 = shl i32 %6, 1
  store i32 %7, ptr %3, align 4, !tbaa !10
  %8 = load ptr, ptr %2, align 8, !tbaa !3
  %9 = getelementptr inbounds nuw %struct.UCharIterator, ptr %8, i32 0, i32 5
  %10 = load i32, ptr %9, align 8, !tbaa !51
  %11 = icmp ne i32 %10, 0
  br i1 %11, label %12, label %15

12:                                               ; preds = %1
  %13 = load i32, ptr %3, align 4, !tbaa !10
  %14 = or i32 %13, 1
  store i32 %14, ptr %3, align 4, !tbaa !10
  br label %15

15:                                               ; preds = %12, %1
  %16 = load i32, ptr %3, align 4, !tbaa !10
  call void @llvm.lifetime.end.p0(i64 4, ptr %3) #8
  ret i32 %16
}

; Function Attrs: inlinehint mustprogress nounwind uwtable
define internal noundef signext i8 @_ZL9U_FAILURE10UErrorCode(i32 noundef %0) #7 {
  %2 = alloca i32, align 4
  store i32 %0, ptr %2, align 4, !tbaa !34
  %3 = load i32, ptr %2, align 4, !tbaa !34
  %4 = icmp sgt i32 %3, 0
  %5 = zext i1 %4 to i8
  ret i8 %5
}

; Function Attrs: mustprogress uwtable
define internal void @_ZL20utf8IteratorSetStateP13UCharIteratorjP10UErrorCode(ptr noundef %0, i32 noundef %1, ptr noundef %2) #0 {
  %4 = alloca ptr, align 8
  %5 = alloca i32, align 4
  %6 = alloca ptr, align 8
  %7 = alloca i32, align 4
  %8 = alloca i32, align 4
  store ptr %0, ptr %4, align 8, !tbaa !3
  store i32 %1, ptr %5, align 4, !tbaa !10
  store ptr %2, ptr %6, align 8, !tbaa !13
  %9 = load ptr, ptr %6, align 8, !tbaa !13
  %10 = icmp eq ptr %9, null
  br i1 %10, label %16, label %11

11:                                               ; preds = %3
  %12 = load ptr, ptr %6, align 8, !tbaa !13
  %13 = load i32, ptr %12, align 4, !tbaa !34
  %14 = call noundef signext i8 @_ZL9U_FAILURE10UErrorCode(i32 noundef %13)
  %15 = icmp ne i8 %14, 0
  br i1 %15, label %16, label %17

16:                                               ; preds = %11, %3
  br label %104

17:                                               ; preds = %11
  %18 = load ptr, ptr %4, align 8, !tbaa !3
  %19 = icmp eq ptr %18, null
  br i1 %19, label %20, label %22

20:                                               ; preds = %17
  %21 = load ptr, ptr %6, align 8, !tbaa !13
  store i32 1, ptr %21, align 4, !tbaa !34
  br label %103

22:                                               ; preds = %17
  %23 = load i32, ptr %5, align 4, !tbaa !10
  %24 = load ptr, ptr %4, align 8, !tbaa !3
  %25 = call noundef i32 @_ZL20utf8IteratorGetStatePK13UCharIterator(ptr noundef %24)
  %26 = icmp eq i32 %23, %25
  br i1 %26, label %27, label %28

27:                                               ; preds = %22
  br label %102

28:                                               ; preds = %22
  call void @llvm.lifetime.start.p0(i64 4, ptr %7) #8
  %29 = load i32, ptr %5, align 4, !tbaa !10
  %30 = lshr i32 %29, 1
  store i32 %30, ptr %7, align 4, !tbaa !10
  %31 = load i32, ptr %5, align 4, !tbaa !10
  %32 = and i32 %31, 1
  store i32 %32, ptr %5, align 4, !tbaa !10
  %33 = load i32, ptr %5, align 4, !tbaa !10
  %34 = icmp eq i32 %33, 0
  br i1 %34, label %35, label %38

35:                                               ; preds = %28
  %36 = load i32, ptr %7, align 4, !tbaa !10
  %37 = icmp slt i32 %36, 0
  br i1 %37, label %47, label %41

38:                                               ; preds = %28
  %39 = load i32, ptr %7, align 4, !tbaa !10
  %40 = icmp slt i32 %39, 4
  br i1 %40, label %47, label %41

41:                                               ; preds = %38, %35
  %42 = load ptr, ptr %4, align 8, !tbaa !3
  %43 = getelementptr inbounds nuw %struct.UCharIterator, ptr %42, i32 0, i32 4
  %44 = load i32, ptr %43, align 4, !tbaa !17
  %45 = load i32, ptr %7, align 4, !tbaa !10
  %46 = icmp slt i32 %44, %45
  br i1 %46, label %47, label %49

47:                                               ; preds = %41, %38, %35
  %48 = load ptr, ptr %6, align 8, !tbaa !13
  store i32 8, ptr %48, align 4, !tbaa !34
  br label %101

49:                                               ; preds = %41
  %50 = load i32, ptr %7, align 4, !tbaa !10
  %51 = load ptr, ptr %4, align 8, !tbaa !3
  %52 = getelementptr inbounds nuw %struct.UCharIterator, ptr %51, i32 0, i32 2
  store i32 %50, ptr %52, align 4, !tbaa !39
  %53 = load i32, ptr %7, align 4, !tbaa !10
  %54 = icmp sle i32 %53, 1
  br i1 %54, label %55, label %59

55:                                               ; preds = %49
  %56 = load i32, ptr %7, align 4, !tbaa !10
  %57 = load ptr, ptr %4, align 8, !tbaa !3
  %58 = getelementptr inbounds nuw %struct.UCharIterator, ptr %57, i32 0, i32 3
  store i32 %56, ptr %58, align 8, !tbaa !40
  br label %62

59:                                               ; preds = %49
  %60 = load ptr, ptr %4, align 8, !tbaa !3
  %61 = getelementptr inbounds nuw %struct.UCharIterator, ptr %60, i32 0, i32 3
  store i32 -1, ptr %61, align 8, !tbaa !40
  br label %62

62:                                               ; preds = %59, %55
  %63 = load i32, ptr %5, align 4, !tbaa !10
  %64 = icmp eq i32 %63, 0
  br i1 %64, label %65, label %68

65:                                               ; preds = %62
  %66 = load ptr, ptr %4, align 8, !tbaa !3
  %67 = getelementptr inbounds nuw %struct.UCharIterator, ptr %66, i32 0, i32 5
  store i32 0, ptr %67, align 8, !tbaa !51
  br label %100

68:                                               ; preds = %62
  call void @llvm.lifetime.start.p0(i64 4, ptr %8) #8
  br label %69

69:                                               ; preds = %68
  %70 = load ptr, ptr %4, align 8, !tbaa !3
  %71 = getelementptr inbounds nuw %struct.UCharIterator, ptr %70, i32 0, i32 0
  %72 = load ptr, ptr %71, align 8, !tbaa !14
  %73 = load i32, ptr %7, align 4, !tbaa !10
  %74 = add nsw i32 %73, -1
  store i32 %74, ptr %7, align 4, !tbaa !10
  %75 = sext i32 %74 to i64
  %76 = getelementptr inbounds i8, ptr %72, i64 %75
  %77 = load i8, ptr %76, align 1, !tbaa !20
  %78 = zext i8 %77 to i32
  store i32 %78, ptr %8, align 4, !tbaa !10
  %79 = load i32, ptr %8, align 4, !tbaa !10
  %80 = and i32 %79, 128
  %81 = icmp eq i32 %80, 0
  br i1 %81, label %88, label %82

82:                                               ; preds = %69
  %83 = load ptr, ptr %4, align 8, !tbaa !3
  %84 = getelementptr inbounds nuw %struct.UCharIterator, ptr %83, i32 0, i32 0
  %85 = load ptr, ptr %84, align 8, !tbaa !14
  %86 = load i32, ptr %8, align 4, !tbaa !10
  %87 = call i32 @utf8_prevCharSafeBody_77(ptr noundef %85, i32 noundef 0, ptr noundef %7, i32 noundef %86, i8 noundef signext -3)
  store i32 %87, ptr %8, align 4, !tbaa !10
  br label %88

88:                                               ; preds = %82, %69
  br label %89

89:                                               ; preds = %88
  br label %90

90:                                               ; preds = %89
  %91 = load i32, ptr %8, align 4, !tbaa !10
  %92 = icmp sle i32 %91, 65535
  br i1 %92, label %93, label %95

93:                                               ; preds = %90
  %94 = load ptr, ptr %6, align 8, !tbaa !13
  store i32 8, ptr %94, align 4, !tbaa !34
  br label %99

95:                                               ; preds = %90
  %96 = load i32, ptr %8, align 4, !tbaa !10
  %97 = load ptr, ptr %4, align 8, !tbaa !3
  %98 = getelementptr inbounds nuw %struct.UCharIterator, ptr %97, i32 0, i32 5
  store i32 %96, ptr %98, align 8, !tbaa !51
  br label %99

99:                                               ; preds = %95, %93
  call void @llvm.lifetime.end.p0(i64 4, ptr %8) #8
  br label %100

100:                                              ; preds = %99, %65
  br label %101

101:                                              ; preds = %100, %47
  call void @llvm.lifetime.end.p0(i64 4, ptr %7) #8
  br label %102

102:                                              ; preds = %101, %27
  br label %103

103:                                              ; preds = %102, %20
  br label %104

104:                                              ; preds = %103, %16
  ret void
}