; Function Attrs: mustprogress uwtable
define internal void @_ZL20utf8IteratorSetStateP13UCharIteratorjP10UErrorCode(ptr noundef %0, i32 noundef %1, ptr noundef %2) #0 {
  %4 = alloca i32, align 4
  %5 = icmp eq ptr %2, null
  br i1 %5, label %46, label %6

6:                                                ; preds = %3
  %7 = load i32, ptr %2, align 4, !tbaa !24
  %8 = icmp slt i32 %7, 1
  br i1 %8, label %9, label %46

9:                                                ; preds = %6
  %10 = icmp eq ptr %0, null
  br i1 %10, label %11, label %12

11:                                               ; preds = %9
  store i32 1, ptr %2, align 4, !tbaa !24
  br label %46

12:                                               ; preds = %9
  %13 = getelementptr inbounds nuw i8, ptr %0, i64 12
  %14 = load i32, ptr %13, align 4, !tbaa !27
  %15 = shl i32 %14, 1
  %16 = getelementptr inbounds nuw i8, ptr %0, i64 24
  %17 = load i32, ptr %16, align 8, !tbaa !39
  %.not.i = icmp ne i32 %17, 0
  %18 = zext i1 %.not.i to i32
  %spec.select.i = or disjoint i32 %15, %18
  %19 = icmp eq i32 %1, %spec.select.i
  br i1 %19, label %46, label %20

20:                                               ; preds = %12
  call void @llvm.lifetime.start.p0(i64 4, ptr nonnull %4) #15
  %21 = lshr i32 %1, 1
  %22 = and i32 %1, 1
  %.not = icmp eq i32 %22, 0
  %23 = and i32 %1, -7
  %or.cond = icmp eq i32 %23, 1
  br i1 %or.cond, label %28, label %24

24:                                               ; preds = %20
  %25 = getelementptr inbounds nuw i8, ptr %0, i64 20
  %26 = load i32, ptr %25, align 4, !tbaa !13
  %27 = icmp slt i32 %26, %21
  br i1 %27, label %28, label %29

28:                                               ; preds = %20, %24
  store i32 8, ptr %2, align 4, !tbaa !24
  br label %45

29:                                               ; preds = %24
  store i32 %21, ptr %13, align 4, !tbaa !27
  %30 = icmp ult i32 %1, 4
  %spec.select = select i1 %30, i32 %21, i32 -1
  %31 = getelementptr inbounds nuw i8, ptr %0, i64 16
  store i32 %spec.select, ptr %31, align 8, !tbaa !28
  br i1 %.not, label %32, label %33

32:                                               ; preds = %29
  store i32 0, ptr %16, align 8, !tbaa !39
  br label %45

33:                                               ; preds = %29
  %34 = load ptr, ptr %0, align 8, !tbaa !10
  %35 = add nsw i32 %21, -1
  store i32 %35, ptr %4, align 4, !tbaa !8
  %36 = sext i32 %35 to i64
  %37 = getelementptr inbounds i8, ptr %34, i64 %36
  %38 = load i8, ptr %37, align 1, !tbaa !14
  %39 = icmp sgt i8 %38, -1
  br i1 %39, label %.thread, label %40

40:                                               ; preds = %33
  %41 = zext i8 %38 to i32
  %42 = call i32 @utf8_prevCharSafeBody_77(ptr noundef nonnull %34, i32 noundef 0, ptr noundef nonnull %4, i32 noundef %41, i8 noundef signext -3)
  %43 = icmp slt i32 %42, 65536
  br i1 %43, label %.thread, label %44

.thread:                                          ; preds = %33, %40
  store i32 8, ptr %2, align 4, !tbaa !24
  br label %45

44:                                               ; preds = %40
  store i32 %42, ptr %16, align 8, !tbaa !39
  br label %45

45:                                               ; preds = %.thread, %44, %32, %28
  call void @llvm.lifetime.end.p0(i64 4, ptr nonnull %4) #15
  br label %46

46:                                               ; preds = %11, %12, %45, %3, %6
  ret void
}